; Function Attrs: mustprogress uwtable
define internal void @_ZL16icGetCompletionsP19ic_completion_env_sPKc(ptr noundef %0, ptr noundef %1) #1 personality ptr @__gxx_personality_v0 {
  %3 = alloca %"class.std::__cxx11::basic_string", align 8
  %4 = alloca %"class.std::allocator", align 1
  %5 = alloca %"class.std::function", align 8
  %6 = tail call ptr @ic_completion_arg(ptr noundef %0)
  call void @_ZNSaIcEC1Ev(ptr noundef nonnull align 1 dereferenceable(1) %4) #22
  %7 = invoke noundef ptr @_ZNSt7__cxx1112basic_stringIcSt11char_traitsIcESaIcEE13_M_local_dataEv(ptr noundef nonnull align 8 dereferenceable(32) %3)
          to label %.noexc unwind label %27

.noexc:                                           ; preds = %2
  invoke void @_ZNSt7__cxx1112basic_stringIcSt11char_traitsIcESaIcEE12_Alloc_hiderC1EPcRKS3_(ptr noundef nonnull align 8 dereferenceable(8) %3, ptr noundef %7, ptr noundef nonnull align 1 dereferenceable(1) %4)
          to label %.noexc7 unwind label %27

.noexc7:                                          ; preds = %.noexc
  %8 = icmp eq ptr %1, null
  br i1 %8, label %9, label %13

9:                                                ; preds = %.noexc7
  invoke void @_ZSt19__throw_logic_errorPKc(ptr noundef nonnull @.str.89) #23
          to label %10 unwind label %11

10:                                               ; preds = %9
  unreachable

11:                                               ; preds = %13, %9
  %12 = landingpad { ptr, i32 }
          cleanup
  call void @_ZNSaIcED2Ev(ptr noundef nonnull align 1 dereferenceable(1) %3) #22
  br label %.body

13:                                               ; preds = %.noexc7
  %14 = call noundef i64 @strlen(ptr noundef nonnull dereferenceable(1) %1) #22
  %15 = getelementptr inbounds i8, ptr %1, i64 %14
  invoke void @_ZNSt7__cxx1112basic_stringIcSt11char_traitsIcESaIcEE12_M_constructIPKcEEvT_S8_St20forward_iterator_tag(ptr noundef nonnull align 8 dereferenceable(32) %3, ptr noundef nonnull %1, ptr noundef nonnull %15)
          to label %_ZNSt7__cxx1112basic_stringIcSt11char_traitsIcESaIcEEC2IS3_EEPKcRKS3_.exit unwind label %11

_ZNSt7__cxx1112basic_stringIcSt11char_traitsIcESaIcEEC2IS3_EEPKcRKS3_.exit: ; preds = %13
  %16 = getelementptr inbounds i8, ptr %5, i64 16
  %17 = getelementptr inbounds i8, ptr %5, i64 24
  %18 = getelementptr inbounds i8, ptr %5, i64 8
  store i64 0, ptr %18, align 8
  %19 = ptrtoint ptr %0 to i64
  store i64 %19, ptr %5, align 8
  store ptr @"_ZNSt17_Function_handlerIFvRKNSt7__cxx1112basic_stringIcSt11char_traitsIcESaIcEEES7_EZL16icGetCompletionsP19ic_completion_env_sPKcE3$_0E9_M_invokeERKSt9_Any_dataS7_S7_", ptr %17, align 8
  store ptr @"_ZNSt17_Function_handlerIFvRKNSt7__cxx1112basic_stringIcSt11char_traitsIcESaIcEEES7_EZL16icGetCompletionsP19ic_completion_env_sPKcE3$_0E10_M_managerERSt9_Any_dataRKSF_St18_Manager_operation", ptr %16, align 8
  invoke void @_Z14getCompletionsP9lua_StateRKNSt7__cxx1112basic_stringIcSt11char_traitsIcESaIcEEERKSt8functionIFvS8_S8_EE(ptr noundef %6, ptr noundef nonnull align 8 dereferenceable(32) %3, ptr noundef nonnull align 8 dereferenceable(32) %5)
          to label %20 unwind label %29

20:                                               ; preds = %_ZNSt7__cxx1112basic_stringIcSt11char_traitsIcESaIcEEC2IS3_EEPKcRKS3_.exit
  %21 = load ptr, ptr %16, align 8
  %.not.i.i = icmp eq ptr %21, null
  br i1 %.not.i.i, label %_ZNSt8functionIFvRKNSt7__cxx1112basic_stringIcSt11char_traitsIcESaIcEEES7_EED2Ev.exit, label %22

22:                                               ; preds = %20
  %23 = invoke noundef zeroext i1 %21(ptr noundef nonnull align 8 dereferenceable(16) %5, ptr noundef nonnull align 8 dereferenceable(16) %5, i32 noundef 3)
          to label %_ZNSt8functionIFvRKNSt7__cxx1112basic_stringIcSt11char_traitsIcESaIcEEES7_EED2Ev.exit unwind label %24

24:                                               ; preds = %22
  %25 = landingpad { ptr, i32 }
          catch ptr null
  %26 = extractvalue { ptr, i32 } %25, 0
  call void @__clang_call_terminate(ptr %26) #28
  unreachable

_ZNSt8functionIFvRKNSt7__cxx1112basic_stringIcSt11char_traitsIcESaIcEEES7_EED2Ev.exit: ; preds = %20, %22
  call void @_ZNSt7__cxx1112basic_stringIcSt11char_traitsIcESaIcEED1Ev(ptr noundef nonnull align 8 dereferenceable(32) %3) #22
  call void @_ZNSaIcED1Ev(ptr noundef nonnull align 1 dereferenceable(1) %4) #22
  ret void

27:                                               ; preds = %.noexc, %2
  %28 = landingpad { ptr, i32 }
          cleanup
  br label %.body

29:                                               ; preds = %_ZNSt7__cxx1112basic_stringIcSt11char_traitsIcESaIcEEC2IS3_EEPKcRKS3_.exit
  %30 = landingpad { ptr, i32 }
          cleanup
  %31 = load ptr, ptr %16, align 8
  %.not.i.i8 = icmp eq ptr %31, null
  br i1 %.not.i.i8, label %_ZNSt8functionIFvRKNSt7__cxx1112basic_stringIcSt11char_traitsIcESaIcEEES7_EED2Ev.exit9, label %32

32:                                               ; preds = %29
  %33 = invoke noundef zeroext i1 %31(ptr noundef nonnull align 8 dereferenceable(16) %5, ptr noundef nonnull align 8 dereferenceable(16) %5, i32 noundef 3)
          to label %_ZNSt8functionIFvRKNSt7__cxx1112basic_stringIcSt11char_traitsIcESaIcEEES7_EED2Ev.exit9 unwind label %34

34:                                               ; preds = %32
  %35 = landingpad { ptr, i32 }
          catch ptr null
  %36 = extractvalue { ptr, i32 } %35, 0
  call void @__clang_call_terminate(ptr %36) #28
  unreachable

_ZNSt8functionIFvRKNSt7__cxx1112basic_stringIcSt11char_traitsIcESaIcEEES7_EED2Ev.exit9: ; preds = %29, %32
  call void @_ZNSt7__cxx1112basic_stringIcSt11char_traitsIcESaIcEED1Ev(ptr noundef nonnull align 8 dereferenceable(32) %3) #22
  br label %.body

.body:                                            ; preds = %27, %11, %_ZNSt8functionIFvRKNSt7__cxx1112basic_stringIcSt11char_traitsIcESaIcEEES7_EED2Ev.exit9
  %.pn = phi { ptr, i32 } [ %30, %_ZNSt8functionIFvRKNSt7__cxx1112basic_stringIcSt11char_traitsIcESaIcEEES7_EED2Ev.exit9 ], [ %28, %27 ], [ %12, %11 ]
  call void @_ZNSaIcED1Ev(ptr noundef nonnull align 1 dereferenceable(1) %4) #22
  resume { ptr, i32 } %.pn
}